target datalayout = "e-m:e-p270:32:32-p271:32:32-p272:64:64-i64:64-i128:128-f80:128-n8:16:32:64-S128"
target triple = "x86_64-pc-linux-gnu"

%"class.absl::debugging_internal::(anonymous namespace)::RustSymbolParser" = type { [256 x i8], i32, [64 x i8], i32, [16 x i32], i32, i32, i32, ptr, ptr, ptr }

; Function Attrs: mustprogress nounwind uwtable
define internal noundef zeroext i1 @_ZN4absl18debugging_internal12_GLOBAL__N_17IsUpperEc(i8 noundef signext %0) #2 {
  %2 = alloca i8, align 1
  store i8 %0, ptr %2, align 1, !tbaa !13
  %3 = load i8, ptr %2, align 1, !tbaa !13
  %4 = sext i8 %3 to i32
  %5 = icmp sle i32 65, %4
  br i1 %5, label %6, label %10

6:                                                ; preds = %1
  %7 = load i8, ptr %2, align 1, !tbaa !13
  %8 = sext i8 %7 to i32
  %9 = icmp sle i32 %8, 90
  br label %10

10:                                               ; preds = %6, %1
  %11 = phi i1 [ false, %1 ], [ %9, %6 ]
  ret i1 %11
}

; Function Attrs: mustprogress nounwind uwtable
define internal noundef zeroext i1 @_ZN4absl18debugging_internal12_GLOBAL__N_17IsLowerEc(i8 noundef signext %0) #2 {
  %2 = alloca i8, align 1
  store i8 %0, ptr %2, align 1, !tbaa !13
  %3 = load i8, ptr %2, align 1, !tbaa !13
  %4 = sext i8 %3 to i32
  %5 = icmp sle i32 97, %4
  br i1 %5, label %6, label %10

6:                                                ; preds = %1
  %7 = load i8, ptr %2, align 1, !tbaa !13
  %8 = sext i8 %7 to i32
  %9 = icmp sle i32 %8, 122
  br label %10

10:                                               ; preds = %6, %1
  %11 = phi i1 [ false, %1 ], [ %9, %6 ]
  ret i1 %11
}

; Function Attrs: mustprogress nounwind uwtable
define linkonce_odr dso_local noundef i32 @_ZNSt14numeric_limitsIiE3maxEv() #2 comdat align 2 {
  ret i32 2147483647
}

; Function Attrs: mustprogress nounwind uwtable
define internal noundef signext i8 @_ZN4absl18debugging_internal12_GLOBAL__N_116RustSymbolParser4TakeEv(ptr noundef nonnull align 8 dereferenceable(432) %0) #2 align 2 {
  %2 = alloca ptr, align 8
  store ptr %0, ptr %2, align 8, !tbaa !11
  %3 = load ptr, ptr %2, align 8
  %4 = getelementptr inbounds nuw %"class.absl::debugging_internal::(anonymous namespace)::RustSymbolParser", ptr %3, i32 0, i32 8
  %5 = load ptr, ptr %4, align 8, !tbaa !22
  %6 = getelementptr inbounds nuw %"class.absl::debugging_internal::(anonymous namespace)::RustSymbolParser", ptr %3, i32 0, i32 7
  %7 = load i32, ptr %6, align 8, !tbaa !21
  %8 = add nsw i32 %7, 1
  store i32 %8, ptr %6, align 8, !tbaa !21
  %9 = sext i32 %7 to i64
  %10 = getelementptr inbounds i8, ptr %5, i64 %9
  %11 = load i8, ptr %10, align 1, !tbaa !13
  ret i8 %11
}

; Function Attrs: mustprogress nounwind uwtable
define internal noundef zeroext i1 @_ZN4absl18debugging_internal12_GLOBAL__N_17IsDigitEc(i8 noundef signext %0) #2 {
  %2 = alloca i8, align 1
  store i8 %0, ptr %2, align 1, !tbaa !13
  %3 = load i8, ptr %2, align 1, !tbaa !13
  %4 = sext i8 %3 to i32
  %5 = icmp sle i32 48, %4
  br i1 %5, label %6, label %10

6:                                                ; preds = %1
  %7 = load i8, ptr %2, align 1, !tbaa !13
  %8 = sext i8 %7 to i32
  %9 = icmp sle i32 %8, 57
  br label %10

10:                                               ; preds = %6, %1
  %11 = phi i1 [ false, %1 ], [ %9, %6 ]
  ret i1 %11
}

; Function Attrs: mustprogress uwtable
define internal noundef zeroext i1 @_ZN4absl18debugging_internal12_GLOBAL__N_17IsAlphaEc(i8 noundef signext %0) #0 {
  %2 = alloca i8, align 1
  store i8 %0, ptr %2, align 1, !tbaa !13
  %3 = load i8, ptr %2, align 1, !tbaa !13
  %4 = call noundef zeroext i1 @_ZN4absl18debugging_internal12_GLOBAL__N_17IsLowerEc(i8 noundef signext %3)
  br i1 %4, label %8, label %5

5:                                                ; preds = %1
  %6 = load i8, ptr %2, align 1, !tbaa !13
  %7 = call noundef zeroext i1 @_ZN4absl18debugging_internal12_GLOBAL__N_17IsUpperEc(i8 noundef signext %6)
  br label %8

8:                                                ; preds = %5, %1
  %9 = phi i1 [ true, %1 ], [ %7, %5 ]
  ret i1 %9
}

; Function Attrs: mustprogress nounwind uwtable
define internal noundef signext i8 @_ZNK4absl18debugging_internal12_GLOBAL__N_116RustSymbolParser4PeekEv(ptr noundef nonnull align 8 dereferenceable(432) %0) #2 align 2 {
  %2 = alloca ptr, align 8
  store ptr %0, ptr %2, align 8, !tbaa !11
  %3 = load ptr, ptr %2, align 8
  %4 = getelementptr inbounds nuw %"class.absl::debugging_internal::(anonymous namespace)::RustSymbolParser", ptr %3, i32 0, i32 8
  %5 = load ptr, ptr %4, align 8, !tbaa !22
  %6 = getelementptr inbounds nuw %"class.absl::debugging_internal::(anonymous namespace)::RustSymbolParser", ptr %3, i32 0, i32 7
  %7 = load i32, ptr %6, align 8, !tbaa !21
  %8 = sext i32 %7 to i64
  %9 = getelementptr inbounds i8, ptr %5, i64 %8
  %10 = load i8, ptr %9, align 1, !tbaa !13
  ret i8 %10
}

; Function Attrs: mustprogress uwtable
define internal noundef zeroext i1 @_ZN4absl18debugging_internal12_GLOBAL__N_116RustSymbolParser17ParseBase62NumberERi(ptr noundef nonnull align 8 dereferenceable(432) %0, ptr noundef nonnull align 4 dereferenceable(4) %1) #0 align 2 {
  %3 = alloca i1, align 1
  %4 = alloca ptr, align 8
  %5 = alloca ptr, align 8
  %6 = alloca i32, align 4
  %7 = alloca i8, align 1
  %8 = alloca i8, align 1
  %9 = alloca i32, align 4
  %10 = alloca i32, align 4
  store ptr %0, ptr %4, align 8, !tbaa !11
  store ptr %1, ptr %5, align 8, !tbaa !33
  %11 = load ptr, ptr %4, align 8
  %12 = load ptr, ptr %5, align 8, !tbaa !33
  store i32 -1, ptr %12, align 4, !tbaa !18
  %13 = call noundef zeroext i1 @_ZN4absl18debugging_internal12_GLOBAL__N_116RustSymbolParser3EatEc(ptr noundef nonnull align 8 dereferenceable(432) %11, i8 noundef signext 95)
  br i1 %13, label %14, label %16

14:                                               ; preds = %2
  %15 = load ptr, ptr %5, align 8, !tbaa !33
  store i32 0, ptr %15, align 4, !tbaa !18
  store i1 true, ptr %3, align 1
  br label %71

16:                                               ; preds = %2
  call void @llvm.lifetime.start.p0(i64 4, ptr %6) #7
  store i32 0, ptr %6, align 4, !tbaa !18
  call void @llvm.lifetime.start.p0(i64 1, ptr %7) #7
  store i8 0, ptr %7, align 1, !tbaa !35
  br label %17

17:                                               ; preds = %58, %16
  %18 = call noundef signext i8 @_ZNK4absl18debugging_internal12_GLOBAL__N_116RustSymbolParser4PeekEv(ptr noundef nonnull align 8 dereferenceable(432) %11)
  %19 = call noundef zeroext i1 @_ZN4absl18debugging_internal12_GLOBAL__N_17IsAlphaEc(i8 noundef signext %18)
  br i1 %19, label %23, label %20

20:                                               ; preds = %17
  %21 = call noundef signext i8 @_ZNK4absl18debugging_internal12_GLOBAL__N_116RustSymbolParser4PeekEv(ptr noundef nonnull align 8 dereferenceable(432) %11)
  %22 = call noundef zeroext i1 @_ZN4absl18debugging_internal12_GLOBAL__N_17IsDigitEc(i8 noundef signext %21)
  br label %23

23:                                               ; preds = %20, %17
  %24 = phi i1 [ true, %17 ], [ %22, %20 ]
  br i1 %24, label %25, label %59

25:                                               ; preds = %23
  call void @llvm.lifetime.start.p0(i64 1, ptr %8) #7
  %26 = call noundef signext i8 @_ZN4absl18debugging_internal12_GLOBAL__N_116RustSymbolParser4TakeEv(ptr noundef nonnull align 8 dereferenceable(432) %11)
  store i8 %26, ptr %8, align 1, !tbaa !13
  %27 = load i32, ptr %6, align 4, !tbaa !18
  %28 = call noundef i32 @_ZNSt14numeric_limitsIiE3maxEv() #7
  %29 = sdiv i32 %28, 62
  %30 = icmp sge i32 %27, %29
  br i1 %30, label %31, label %32

31:                                               ; preds = %25
  store i8 1, ptr %7, align 1, !tbaa !35
  br label %58

32:                                               ; preds = %25
  call void @llvm.lifetime.start.p0(i64 4, ptr %9) #7
  %33 = load i8, ptr %8, align 1, !tbaa !13
  %34 = call noundef zeroext i1 @_ZN4absl18debugging_internal12_GLOBAL__N_17IsDigitEc(i8 noundef signext %33)
  br i1 %34, label %35, label %39

35:                                               ; preds = %32
  %36 = load i8, ptr %8, align 1, !tbaa !13
  %37 = sext i8 %36 to i32
  %38 = sub nsw i32 %37, 48
  store i32 %38, ptr %9, align 4, !tbaa !18
  br label %53

39:                                               ; preds = %32
  %40 = load i8, ptr %8, align 1, !tbaa !13
  %41 = call noundef zeroext i1 @_ZN4absl18debugging_internal12_GLOBAL__N_17IsLowerEc(i8 noundef signext %40)
  br i1 %41, label %42, label %47

42:                                               ; preds = %39
  %43 = load i8, ptr %8, align 1, !tbaa !13
  %44 = sext i8 %43 to i32
  %45 = sub nsw i32 %44, 97
  %46 = add nsw i32 %45, 10
  store i32 %46, ptr %9, align 4, !tbaa !18
  br label %52

47:                                               ; preds = %39
  %48 = load i8, ptr %8, align 1, !tbaa !13
  %49 = sext i8 %48 to i32
  %50 = sub nsw i32 %49, 65
  %51 = add nsw i32 %50, 36
  store i32 %51, ptr %9, align 4, !tbaa !18
  br label %52

52:                                               ; preds = %47, %42
  br label %53

53:                                               ; preds = %52, %35
  %54 = load i32, ptr %6, align 4, !tbaa !18
  %55 = mul nsw i32 62, %54
  %56 = load i32, ptr %9, align 4, !tbaa !18
  %57 = add nsw i32 %55, %56
  store i32 %57, ptr %6, align 4, !tbaa !18
  call void @llvm.lifetime.end.p0(i64 4, ptr %9) #7
  br label %58

58:                                               ; preds = %53, %31
  call void @llvm.lifetime.end.p0(i64 1, ptr %8) #7
  br label %17, !llvm.loop !46

59:                                               ; preds = %23
  %60 = call noundef zeroext i1 @_ZN4absl18debugging_internal12_GLOBAL__N_116RustSymbolParser3EatEc(ptr noundef nonnull align 8 dereferenceable(432) %11, i8 noundef signext 95)
  br i1 %60, label %62, label %61

61:                                               ; preds = %59
  store i1 false, ptr %3, align 1
  store i32 1, ptr %10, align 4
  br label %70

62:                                               ; preds = %59
  %63 = load i8, ptr %7, align 1, !tbaa !35, !range !37, !noundef !38
  %64 = trunc i8 %63 to i1
  br i1 %64, label %69, label %65

65:                                               ; preds = %62
  %66 = load i32, ptr %6, align 4, !tbaa !18
  %67 = add nsw i32 %66, 1
  %68 = load ptr, ptr %5, align 8, !tbaa !33
  store i32 %67, ptr %68, align 4, !tbaa !18
  br label %69

69:                                               ; preds = %65, %62
  store i1 true, ptr %3, align 1
  store i32 1, ptr %10, align 4
  br label %70

70:                                               ; preds = %69, %61
  call void @llvm.lifetime.end.p0(i64 1, ptr %7) #7
  call void @llvm.lifetime.end.p0(i64 4, ptr %6) #7
  br label %71

71:                                               ; preds = %70, %14
  %72 = load i1, ptr %3, align 1
  ret i1 %72
}

; Function Attrs: mustprogress nounwind uwtable
define internal noundef zeroext i1 @_ZN4absl18debugging_internal12_GLOBAL__N_116RustSymbolParser3EatEc(ptr noundef nonnull align 8 dereferenceable(432) %0, i8 noundef signext %1) #2 align 2 {
  %3 = alloca i1, align 1
  %4 = alloca ptr, align 8
  %5 = alloca i8, align 1
  store ptr %0, ptr %4, align 8, !tbaa !11
  store i8 %1, ptr %5, align 1, !tbaa !13
  %6 = load ptr, ptr %4, align 8
  %7 = getelementptr inbounds nuw %"class.absl::debugging_internal::(anonymous namespace)::RustSymbolParser", ptr %6, i32 0, i32 8
  %8 = load ptr, ptr %7, align 8, !tbaa !22
  %9 = getelementptr inbounds nuw %"class.absl::debugging_internal::(anonymous namespace)::RustSymbolParser", ptr %6, i32 0, i32 7
  %10 = load i32, ptr %9, align 8, !tbaa !21
  %11 = sext i32 %10 to i64
  %12 = getelementptr inbounds i8, ptr %8, i64 %11
  %13 = load i8, ptr %12, align 1, !tbaa !13
  %14 = sext i8 %13 to i32
  %15 = load i8, ptr %5, align 1, !tbaa !13
  %16 = sext i8 %15 to i32
  %17 = icmp ne i32 %14, %16
  br i1 %17, label %18, label %19

18:                                               ; preds = %2
  store i1 false, ptr %3, align 1
  br label %23

19:                                               ; preds = %2
  %20 = getelementptr inbounds nuw %"class.absl::debugging_internal::(anonymous namespace)::RustSymbolParser", ptr %6, i32 0, i32 7
  %21 = load i32, ptr %20, align 8, !tbaa !21
  %22 = add nsw i32 %21, 1
  store i32 %22, ptr %20, align 8, !tbaa !21
  store i1 true, ptr %3, align 1
  br label %23

23:                                               ; preds = %19, %18
  %24 = load i1, ptr %3, align 1
  ret i1 %24
}

; Function Attrs: mustprogress uwtable
define internal noundef zeroext i1 @_ZN4absl18debugging_internal12_GLOBAL__N_116RustSymbolParser18ParseDisambiguatorERi(ptr noundef nonnull align 8 dereferenceable(432) %0, ptr noundef nonnull align 4 dereferenceable(4) %1) #0 align 2 {
  %3 = alloca i1, align 1
  %4 = alloca ptr, align 8
  %5 = alloca ptr, align 8
  %6 = alloca i32, align 4
  %7 = alloca i32, align 4
  store ptr %0, ptr %4, align 8, !tbaa !11
  store ptr %1, ptr %5, align 8, !tbaa !33
  %8 = load ptr, ptr %4, align 8
  %9 = load ptr, ptr %5, align 8, !tbaa !33
  store i32 -1, ptr %9, align 4, !tbaa !18
  %10 = call noundef zeroext i1 @_ZN4absl18debugging_internal12_GLOBAL__N_116RustSymbolParser3EatEc(ptr noundef nonnull align 8 dereferenceable(432) %8, i8 noundef signext 115)
  br i1 %10, label %13, label %11

11:                                               ; preds = %2
  %12 = load ptr, ptr %5, align 8, !tbaa !33
  store i32 0, ptr %12, align 4, !tbaa !18
  store i1 true, ptr %3, align 1
  br label %27

13:                                               ; preds = %2
  call void @llvm.lifetime.start.p0(i64 4, ptr %6) #7
  store i32 0, ptr %6, align 4, !tbaa !18
  %14 = call noundef zeroext i1 @_ZN4absl18debugging_internal12_GLOBAL__N_116RustSymbolParser17ParseBase62NumberERi(ptr noundef nonnull align 8 dereferenceable(432) %8, ptr noundef nonnull align 4 dereferenceable(4) %6)
  br i1 %14, label %16, label %15

15:                                               ; preds = %13
  store i1 false, ptr %3, align 1
  store i32 1, ptr %7, align 4
  br label %26

16:                                               ; preds = %13
  %17 = load i32, ptr %6, align 4, !tbaa !18
  %18 = icmp slt i32 %17, 0
  br i1 %18, label %19, label %20

19:                                               ; preds = %16
  br label %23

20:                                               ; preds = %16
  %21 = load i32, ptr %6, align 4, !tbaa !18
  %22 = add nsw i32 %21, 1
  br label %23

23:                                               ; preds = %20, %19
  %24 = phi i32 [ -1, %19 ], [ %22, %20 ]
  %25 = load ptr, ptr %5, align 8, !tbaa !33
  store i32 %24, ptr %25, align 4, !tbaa !18
  store i1 true, ptr %3, align 1
  store i32 1, ptr %7, align 4
  br label %26

26:                                               ; preds = %23, %15
  call void @llvm.lifetime.end.p0(i64 4, ptr %6) #7
  br label %27

27:                                               ; preds = %26, %11
  %28 = load i1, ptr %3, align 1
  ret i1 %28
}

; Function Attrs: mustprogress uwtable
define internal noundef zeroext i1 @_ZN4absl18debugging_internal12_GLOBAL__N_116RustSymbolParser15ParseIdentifierEc(ptr noundef nonnull align 8 dereferenceable(432) %0, i8 noundef signext %1) #0 align 2 {
  %3 = alloca i1, align 1
  %4 = alloca ptr, align 8
  %5 = alloca i8, align 1
  %6 = alloca i32, align 4
  %7 = alloca i32, align 4
  store ptr %0, ptr %4, align 8, !tbaa !11
  store i8 %1, ptr %5, align 1, !tbaa !13
  %8 = load ptr, ptr %4, align 8
  call void @llvm.lifetime.start.p0(i64 4, ptr %6) #7
  store i32 0, ptr %6, align 4, !tbaa !18
  %9 = call noundef zeroext i1 @_ZN4absl18debugging_internal12_GLOBAL__N_116RustSymbolParser18ParseDisambiguatorERi(ptr noundef nonnull align 8 dereferenceable(432) %8, ptr noundef nonnull align 4 dereferenceable(4) %6)
  br i1 %9, label %11, label %10

10:                                               ; preds = %2
  store i1 false, ptr %3, align 1
  store i32 1, ptr %7, align 4
  br label %15

11:                                               ; preds = %2
  %12 = load i8, ptr %5, align 1, !tbaa !13
  %13 = load i32, ptr %6, align 4, !tbaa !18
  %14 = call noundef zeroext i1 @_ZN4absl18debugging_internal12_GLOBAL__N_116RustSymbolParser30ParseUndisambiguatedIdentifierEci(ptr noundef nonnull align 8 dereferenceable(432) %8, i8 noundef signext %12, i32 noundef %13)
  store i1 %14, ptr %3, align 1
  store i32 1, ptr %7, align 4
  br label %15

15:                                               ; preds = %11, %10
  call void @llvm.lifetime.end.p0(i64 4, ptr %6) #7
  %16 = load i1, ptr %3, align 1
  ret i1 %16
}