; Function Attrs: mustprogress uwtable
define internal fastcc noundef zeroext i1 @_ZN4absl18debugging_internal12_GLOBAL__N_116RustSymbolParser15ParseIdentifierEc(ptr noundef nonnull align 8 captures(none) dereferenceable(432) %0, i8 noundef signext %1) unnamed_addr #0 align 2 {
  %3 = getelementptr inbounds nuw i8, ptr %0, i64 408
  %4 = load ptr, ptr %3, align 8, !tbaa !4
  %5 = getelementptr inbounds nuw i8, ptr %0, i64 400
  %6 = load i32, ptr %5, align 8, !tbaa !17
  %7 = sext i32 %6 to i64
  %8 = getelementptr inbounds i8, ptr %4, i64 %7
  %9 = load i8, ptr %8, align 1, !tbaa !13
  %.not.i.i = icmp eq i8 %9, 115
  br i1 %.not.i.i, label %10, label %55

10:                                               ; preds = %2
  %11 = add nsw i32 %6, 1
  store i32 %11, ptr %5, align 8, !tbaa !17
  %12 = sext i32 %11 to i64
  %13 = getelementptr inbounds i8, ptr %4, i64 %12
  %14 = load i8, ptr %13, align 1, !tbaa !13
  %.not.i.i.i = icmp eq i8 %14, 95
  br i1 %.not.i.i.i, label %.thread.i, label %_ZN4absl18debugging_internal12_GLOBAL__N_116RustSymbolParser3EatEc.exit.preheader.i.i

_ZN4absl18debugging_internal12_GLOBAL__N_116RustSymbolParser3EatEc.exit.preheader.i.i: ; preds = %10
  %15 = and i8 %14, -33
  %16 = add i8 %15, -65
  %17 = icmp ult i8 %16, 26
  %18 = add i8 %14, -48
  %19 = icmp ult i8 %18, 10
  %or.cond25.i.i = or i1 %19, %17
  br i1 %or.cond25.i.i, label %.critedge.i.i, label %_ZN4absl18debugging_internal12_GLOBAL__N_116RustSymbolParser18ParseDisambiguatorERi.exit

.thread.i:                                        ; preds = %10
  %20 = add nsw i32 %6, 2
  store i32 %20, ptr %5, align 8, !tbaa !17
  br label %55

.critedge.i.i:                                    ; preds = %_ZN4absl18debugging_internal12_GLOBAL__N_116RustSymbolParser3EatEc.exit.preheader.i.i, %_ZN4absl18debugging_internal12_GLOBAL__N_116RustSymbolParser3EatEc.exit.i.i
  %indvars.iv.i.i = phi i64 [ %indvars.iv.next.i.i, %_ZN4absl18debugging_internal12_GLOBAL__N_116RustSymbolParser3EatEc.exit.i.i ], [ %12, %_ZN4absl18debugging_internal12_GLOBAL__N_116RustSymbolParser3EatEc.exit.preheader.i.i ]
  %21 = phi ptr [ %43, %_ZN4absl18debugging_internal12_GLOBAL__N_116RustSymbolParser3EatEc.exit.i.i ], [ %13, %_ZN4absl18debugging_internal12_GLOBAL__N_116RustSymbolParser3EatEc.exit.preheader.i.i ]
  %.01527.i.i = phi i1 [ %.116.i.i, %_ZN4absl18debugging_internal12_GLOBAL__N_116RustSymbolParser3EatEc.exit.i.i ], [ false, %_ZN4absl18debugging_internal12_GLOBAL__N_116RustSymbolParser3EatEc.exit.preheader.i.i ]
  %.01726.i.i = phi i32 [ %.118.i.i, %_ZN4absl18debugging_internal12_GLOBAL__N_116RustSymbolParser3EatEc.exit.i.i ], [ 0, %_ZN4absl18debugging_internal12_GLOBAL__N_116RustSymbolParser3EatEc.exit.preheader.i.i ]
  %indvars.iv.next.i.i = add nsw i64 %indvars.iv.i.i, 1
  %22 = trunc nsw i64 %indvars.iv.next.i.i to i32
  store i32 %22, ptr %5, align 8, !tbaa !17
  %23 = load i8, ptr %21, align 1, !tbaa !13
  %.not.i5.i = icmp slt i32 %.01726.i.i, 34636833
  br i1 %.not.i5.i, label %24, label %_ZN4absl18debugging_internal12_GLOBAL__N_116RustSymbolParser3EatEc.exit.i.i

24:                                               ; preds = %.critedge.i.i
  %25 = add i8 %23, -48
  %26 = icmp ult i8 %25, 10
  br i1 %26, label %27, label %30

27:                                               ; preds = %24
  %28 = zext nneg i8 %23 to i32
  %29 = add nsw i32 %28, -48
  br label %39

30:                                               ; preds = %24
  %31 = add i8 %23, -97
  %32 = icmp ult i8 %31, 26
  br i1 %32, label %33, label %36

33:                                               ; preds = %30
  %34 = zext nneg i8 %23 to i32
  %35 = add nsw i32 %34, -87
  br label %39

36:                                               ; preds = %30
  %37 = sext i8 %23 to i32
  %38 = add nsw i32 %37, -29
  br label %39

39:                                               ; preds = %36, %33, %27
  %.0.i.i = phi i32 [ %29, %27 ], [ %35, %33 ], [ %38, %36 ]
  %40 = mul nsw i32 %.01726.i.i, 62
  %41 = add nsw i32 %.0.i.i, %40
  %42 = freeze i32 %41
  br label %_ZN4absl18debugging_internal12_GLOBAL__N_116RustSymbolParser3EatEc.exit.i.i

_ZN4absl18debugging_internal12_GLOBAL__N_116RustSymbolParser3EatEc.exit.i.i: ; preds = %39, %.critedge.i.i
  %.118.i.i = phi i32 [ %42, %39 ], [ %.01726.i.i, %.critedge.i.i ]
  %.116.i.i = phi i1 [ %.01527.i.i, %39 ], [ true, %.critedge.i.i ]
  %43 = getelementptr inbounds i8, ptr %4, i64 %indvars.iv.next.i.i
  %44 = load i8, ptr %43, align 1, !tbaa !13
  %45 = and i8 %44, -33
  %46 = add i8 %45, -65
  %47 = icmp ult i8 %46, 26
  %48 = add i8 %44, -48
  %49 = icmp ult i8 %48, 10
  %or.cond.i.i = or i1 %49, %47
  br i1 %or.cond.i.i, label %.critedge.i.i, label %_ZN4absl18debugging_internal12_GLOBAL__N_116RustSymbolParser3EatEc.exit._crit_edge.i.i, !llvm.loop !19

_ZN4absl18debugging_internal12_GLOBAL__N_116RustSymbolParser3EatEc.exit._crit_edge.i.i: ; preds = %_ZN4absl18debugging_internal12_GLOBAL__N_116RustSymbolParser3EatEc.exit.i.i
  %50 = icmp eq i8 %44, 95
  br i1 %50, label %51, label %_ZN4absl18debugging_internal12_GLOBAL__N_116RustSymbolParser18ParseDisambiguatorERi.exit

51:                                               ; preds = %_ZN4absl18debugging_internal12_GLOBAL__N_116RustSymbolParser3EatEc.exit._crit_edge.i.i
  %52 = add nsw i32 %22, 1
  store i32 %52, ptr %5, align 8, !tbaa !17
  br i1 %.116.i.i, label %55, label %53

53:                                               ; preds = %51
  %54 = add nsw i32 %.118.i.i, 2
  %.inv.inv.i = icmp slt i32 %.118.i.i, -1
  %spec.select.i = select i1 %.inv.inv.i, i32 -1, i32 %54
  br label %55

55:                                               ; preds = %53, %51, %.thread.i, %2
  %.02.ph = phi i32 [ %spec.select.i, %53 ], [ -1, %51 ], [ 1, %.thread.i ], [ 0, %2 ]
  %56 = tail call fastcc noundef zeroext i1 @_ZN4absl18debugging_internal12_GLOBAL__N_116RustSymbolParser30ParseUndisambiguatedIdentifierEci(ptr noundef nonnull align 8 dereferenceable(432) %0, i8 noundef signext %1, i32 noundef %.02.ph)
  br label %_ZN4absl18debugging_internal12_GLOBAL__N_116RustSymbolParser18ParseDisambiguatorERi.exit

_ZN4absl18debugging_internal12_GLOBAL__N_116RustSymbolParser18ParseDisambiguatorERi.exit: ; preds = %_ZN4absl18debugging_internal12_GLOBAL__N_116RustSymbolParser3EatEc.exit._crit_edge.i.i, %_ZN4absl18debugging_internal12_GLOBAL__N_116RustSymbolParser3EatEc.exit.preheader.i.i, %55
  %.0 = phi i1 [ %56, %55 ], [ false, %_ZN4absl18debugging_internal12_GLOBAL__N_116RustSymbolParser3EatEc.exit.preheader.i.i ], [ false, %_ZN4absl18debugging_internal12_GLOBAL__N_116RustSymbolParser3EatEc.exit._crit_edge.i.i ]
  ret i1 %.0
}